target datalayout = "e-m:e-p270:32:32-p271:32:32-p272:64:64-i64:64-i128:128-f80:128-n8:16:32:64-S128"
target triple = "x86_64-pc-linux-gnu"

%class.b3QuantizedBvh = type <{ ptr, [8 x i8], %class.b3Vector3, %class.b3Vector3, %class.b3Vector3, i32, i32, i8, [7 x i8], %class.b3AlignedObjectArray, %class.b3AlignedObjectArray, %class.b3AlignedObjectArray.0, %class.b3AlignedObjectArray.0, i32, [4 x i8], %class.b3AlignedObjectArray.2, i32, [4 x i8] }>
%class.b3Vector3 = type { %union.anon }
%union.anon = type { [4 x float] }
%class.b3AlignedObjectArray = type <{ [4 x i8], i32, i32, [4 x i8], ptr, i8, [7 x i8] }>
%class.b3AlignedObjectArray.0 = type <{ [4 x i8], i32, i32, [4 x i8], ptr, i8, [7 x i8] }>
%class.b3AlignedObjectArray.2 = type <{ [4 x i8], i32, i32, [4 x i8], ptr, i8, [7 x i8] }>

; Function Attrs: inlinehint mustprogress nounwind uwtable
define linkonce_odr dso_local void @_ZN9b3Vector38setValueERKfS1_S1_(ptr noundef nonnull align 16 dereferenceable(16) %0, ptr noundef nonnull align 4 dereferenceable(4) %1, ptr noundef nonnull align 4 dereferenceable(4) %2, ptr noundef nonnull align 4 dereferenceable(4) %3) #1 comdat align 2 {
  %5 = alloca ptr, align 8
  %6 = alloca ptr, align 8
  %7 = alloca ptr, align 8
  %8 = alloca ptr, align 8
  store ptr %0, ptr %5, align 8, !tbaa !37
  store ptr %1, ptr %6, align 8, !tbaa !39
  store ptr %2, ptr %7, align 8, !tbaa !39
  store ptr %3, ptr %8, align 8, !tbaa !39
  %9 = load ptr, ptr %5, align 8
  %10 = load ptr, ptr %6, align 8, !tbaa !39
  %11 = load float, ptr %10, align 4, !tbaa !29
  %12 = getelementptr inbounds nuw %class.b3Vector3, ptr %9, i32 0, i32 0
  %13 = getelementptr inbounds [4 x float], ptr %12, i64 0, i64 0
  store float %11, ptr %13, align 16, !tbaa !41
  %14 = load ptr, ptr %7, align 8, !tbaa !39
  %15 = load float, ptr %14, align 4, !tbaa !29
  %16 = getelementptr inbounds nuw %class.b3Vector3, ptr %9, i32 0, i32 0
  %17 = getelementptr inbounds [4 x float], ptr %16, i64 0, i64 1
  store float %15, ptr %17, align 4, !tbaa !41
  %18 = load ptr, ptr %8, align 8, !tbaa !39
  %19 = load float, ptr %18, align 4, !tbaa !29
  %20 = getelementptr inbounds nuw %class.b3Vector3, ptr %9, i32 0, i32 0
  %21 = getelementptr inbounds [4 x float], ptr %20, i64 0, i64 2
  store float %19, ptr %21, align 8, !tbaa !41
  %22 = getelementptr inbounds nuw %class.b3Vector3, ptr %9, i32 0, i32 0
  %23 = getelementptr inbounds [4 x float], ptr %22, i64 0, i64 3
  store float 0.000000e+00, ptr %23, align 4, !tbaa !41
  ret void
}

; Function Attrs: mustprogress uwtable
define dso_local void @_ZNK14b3QuantizedBvh29reportBoxCastOverlappingNodexEP21b3NodeOverlapCallbackRK9b3Vector3S4_S4_S4_(ptr noundef nonnull align 16 dereferenceable(252) %0, ptr noundef %1, ptr noundef nonnull align 16 dereferenceable(16) %2, ptr noundef nonnull align 16 dereferenceable(16) %3, ptr noundef nonnull align 16 dereferenceable(16) %4, ptr noundef nonnull align 16 dereferenceable(16) %5) #0 align 2 {
  %7 = alloca ptr, align 8
  %8 = alloca ptr, align 8
  %9 = alloca ptr, align 8
  %10 = alloca ptr, align 8
  %11 = alloca ptr, align 8
  %12 = alloca ptr, align 8
  store ptr %0, ptr %7, align 8, !tbaa !4
  store ptr %1, ptr %8, align 8, !tbaa !74
  store ptr %2, ptr %9, align 8, !tbaa !37
  store ptr %3, ptr %10, align 8, !tbaa !37
  store ptr %4, ptr %11, align 8, !tbaa !37
  store ptr %5, ptr %12, align 8, !tbaa !37
  %13 = load ptr, ptr %7, align 8
  %14 = getelementptr inbounds nuw %class.b3QuantizedBvh, ptr %13, i32 0, i32 7
  %15 = load i8, ptr %14, align 8, !tbaa !26, !range !43, !noundef !44
  %16 = trunc i8 %15 to i1
  br i1 %16, label %17, label %25

17:                                               ; preds = %6
  %18 = load ptr, ptr %8, align 8, !tbaa !74
  %19 = load ptr, ptr %9, align 8, !tbaa !37
  %20 = load ptr, ptr %10, align 8, !tbaa !37
  %21 = load ptr, ptr %11, align 8, !tbaa !37
  %22 = load ptr, ptr %12, align 8, !tbaa !37
  %23 = getelementptr inbounds nuw %class.b3QuantizedBvh, ptr %13, i32 0, i32 6
  %24 = load i32, ptr %23, align 4, !tbaa !45
  call void @_ZNK14b3QuantizedBvh36walkStacklessQuantizedTreeAgainstRayEP21b3NodeOverlapCallbackRK9b3Vector3S4_S4_S4_ii(ptr noundef nonnull align 16 dereferenceable(252) %13, ptr noundef %18, ptr noundef nonnull align 16 dereferenceable(16) %19, ptr noundef nonnull align 16 dereferenceable(16) %20, ptr noundef nonnull align 16 dereferenceable(16) %21, ptr noundef nonnull align 16 dereferenceable(16) %22, i32 noundef 0, i32 noundef %24)
  br label %33

25:                                               ; preds = %6
  %26 = load ptr, ptr %8, align 8, !tbaa !74
  %27 = load ptr, ptr %9, align 8, !tbaa !37
  %28 = load ptr, ptr %10, align 8, !tbaa !37
  %29 = load ptr, ptr %11, align 8, !tbaa !37
  %30 = load ptr, ptr %12, align 8, !tbaa !37
  %31 = getelementptr inbounds nuw %class.b3QuantizedBvh, ptr %13, i32 0, i32 6
  %32 = load i32, ptr %31, align 4, !tbaa !45
  call void @_ZNK14b3QuantizedBvh27walkStacklessTreeAgainstRayEP21b3NodeOverlapCallbackRK9b3Vector3S4_S4_S4_ii(ptr noundef nonnull align 16 dereferenceable(252) %13, ptr noundef %26, ptr noundef nonnull align 16 dereferenceable(16) %27, ptr noundef nonnull align 16 dereferenceable(16) %28, ptr noundef nonnull align 16 dereferenceable(16) %29, ptr noundef nonnull align 16 dereferenceable(16) %30, i32 noundef 0, i32 noundef %32)
  br label %33

33:                                               ; preds = %25, %17
  ret void
}

; Function Attrs: inlinehint mustprogress nounwind uwtable
define linkonce_odr dso_local { <2 x float>, <2 x float> } @_Z13b3MakeVector3fff(float noundef %0, float noundef %1, float noundef %2) #1 comdat {
  %4 = alloca %class.b3Vector3, align 16
  %5 = alloca float, align 4
  %6 = alloca float, align 4
  %7 = alloca float, align 4
  store float %0, ptr %5, align 4, !tbaa !29
  store float %1, ptr %6, align 4, !tbaa !29
  store float %2, ptr %7, align 4, !tbaa !29
  call void @_ZN9b3Vector38setValueERKfS1_S1_(ptr noundef nonnull align 16 dereferenceable(16) %4, ptr noundef nonnull align 4 dereferenceable(4) %5, ptr noundef nonnull align 4 dereferenceable(4) %6, ptr noundef nonnull align 4 dereferenceable(4) %7)
  %8 = getelementptr inbounds nuw %class.b3Vector3, ptr %4, i32 0, i32 0
  %9 = getelementptr inbounds nuw %union.anon, ptr %8, i32 0, i32 0
  %10 = load { <2 x float>, <2 x float> }, ptr %9, align 16
  ret { <2 x float>, <2 x float> } %10
}

; Function Attrs: mustprogress uwtable
define dso_local void @_ZNK14b3QuantizedBvh25reportRayOverlappingNodexEP21b3NodeOverlapCallbackRK9b3Vector3S4_(ptr noundef nonnull align 16 dereferenceable(252) %0, ptr noundef %1, ptr noundef nonnull align 16 dereferenceable(16) %2, ptr noundef nonnull align 16 dereferenceable(16) %3) #6 align 2 {
  %5 = alloca ptr, align 8
  %6 = alloca ptr, align 8
  %7 = alloca ptr, align 8
  %8 = alloca ptr, align 8
  %9 = alloca %class.b3Vector3, align 16
  %10 = alloca %class.b3Vector3, align 16
  store ptr %0, ptr %5, align 8, !tbaa !4
  store ptr %1, ptr %6, align 8, !tbaa !74
  store ptr %2, ptr %7, align 8, !tbaa !37
  store ptr %3, ptr %8, align 8, !tbaa !37
  %11 = load ptr, ptr %5, align 8
  %12 = load ptr, ptr %6, align 8, !tbaa !74
  %13 = load ptr, ptr %7, align 8, !tbaa !37
  %14 = load ptr, ptr %8, align 8, !tbaa !37
  call void @llvm.lifetime.start.p0(i64 16, ptr %9) #14
  %15 = call { <2 x float>, <2 x float> } @_Z13b3MakeVector3fff(float noundef 0.000000e+00, float noundef 0.000000e+00, float noundef 0.000000e+00)
  %16 = getelementptr inbounds nuw %class.b3Vector3, ptr %9, i32 0, i32 0
  %17 = getelementptr inbounds nuw %union.anon, ptr %16, i32 0, i32 0
  %18 = getelementptr inbounds nuw { <2 x float>, <2 x float> }, ptr %17, i32 0, i32 0
  %19 = extractvalue { <2 x float>, <2 x float> } %15, 0
  store <2 x float> %19, ptr %18, align 16
  %20 = getelementptr inbounds nuw { <2 x float>, <2 x float> }, ptr %17, i32 0, i32 1
  %21 = extractvalue { <2 x float>, <2 x float> } %15, 1
  store <2 x float> %21, ptr %20, align 8
  call void @llvm.lifetime.start.p0(i64 16, ptr %10) #14
  %22 = call { <2 x float>, <2 x float> } @_Z13b3MakeVector3fff(float noundef 0.000000e+00, float noundef 0.000000e+00, float noundef 0.000000e+00)
  %23 = getelementptr inbounds nuw %class.b3Vector3, ptr %10, i32 0, i32 0
  %24 = getelementptr inbounds nuw %union.anon, ptr %23, i32 0, i32 0
  %25 = getelementptr inbounds nuw { <2 x float>, <2 x float> }, ptr %24, i32 0, i32 0
  %26 = extractvalue { <2 x float>, <2 x float> } %22, 0
  store <2 x float> %26, ptr %25, align 16
  %27 = getelementptr inbounds nuw { <2 x float>, <2 x float> }, ptr %24, i32 0, i32 1
  %28 = extractvalue { <2 x float>, <2 x float> } %22, 1
  store <2 x float> %28, ptr %27, align 8
  call void @_ZNK14b3QuantizedBvh29reportBoxCastOverlappingNodexEP21b3NodeOverlapCallbackRK9b3Vector3S4_S4_S4_(ptr noundef nonnull align 16 dereferenceable(252) %11, ptr noundef %12, ptr noundef nonnull align 16 dereferenceable(16) %13, ptr noundef nonnull align 16 dereferenceable(16) %14, ptr noundef nonnull align 16 dereferenceable(16) %9, ptr noundef nonnull align 16 dereferenceable(16) %10)
  call void @llvm.lifetime.end.p0(i64 16, ptr %10) #14
  call void @llvm.lifetime.end.p0(i64 16, ptr %9) #14
  ret void
}