; Function Attrs: mustprogress uwtable
define dso_local void @_ZNK14b3QuantizedBvh25reportRayOverlappingNodexEP21b3NodeOverlapCallbackRK9b3Vector3S4_(ptr noundef nonnull readonly align 16 captures(none) dereferenceable(252) %0, ptr noundef %1, ptr noundef nonnull readonly align 16 captures(none) dereferenceable(16) %2, ptr noundef nonnull readonly align 16 captures(none) dereferenceable(16) %3) local_unnamed_addr #4 align 2 {
  %5 = alloca %class.b3Vector3, align 16
  %6 = alloca %class.b3Vector3, align 16
  call void @llvm.lifetime.start.p0(i64 16, ptr nonnull %5) #21
  call void @llvm.memset.p0.i64(ptr noundef nonnull align 16 dereferenceable(16) %5, i8 0, i64 16, i1 false)
  call void @llvm.lifetime.start.p0(i64 16, ptr nonnull %6) #21
  %7 = getelementptr inbounds nuw i8, ptr %0, i64 72
  call void @llvm.memset.p0.i64(ptr noundef nonnull align 16 dereferenceable(16) %6, i8 0, i64 16, i1 false)
  %8 = load i8, ptr %7, align 8, !tbaa !24, !range !42, !noundef !43
  %9 = trunc nuw i8 %8 to i1
  br i1 %9, label %10, label %13

10:                                               ; preds = %4
  %11 = getelementptr inbounds nuw i8, ptr %0, i64 68
  %12 = load i32, ptr %11, align 4, !tbaa !45
  call void @_ZNK14b3QuantizedBvh36walkStacklessQuantizedTreeAgainstRayEP21b3NodeOverlapCallbackRK9b3Vector3S4_S4_S4_ii(ptr noundef nonnull readonly align 16 dereferenceable(252) %0, ptr noundef %1, ptr noundef nonnull readonly align 16 dereferenceable(16) %2, ptr noundef nonnull readonly align 16 dereferenceable(16) %3, ptr noundef nonnull readonly align 16 dereferenceable(16) %5, ptr noundef nonnull readonly align 16 dereferenceable(16) %6, i32 noundef 0, i32 noundef %12)
  br label %_ZNK14b3QuantizedBvh29reportBoxCastOverlappingNodexEP21b3NodeOverlapCallbackRK9b3Vector3S4_S4_S4_.exit

13:                                               ; preds = %4
  call void @_ZNK14b3QuantizedBvh27walkStacklessTreeAgainstRayEP21b3NodeOverlapCallbackRK9b3Vector3S4_S4_S4_ii(ptr noundef nonnull readonly align 16 dereferenceable(252) %0, ptr noundef %1, ptr noundef nonnull readonly align 16 dereferenceable(16) %2, ptr noundef nonnull readonly align 16 dereferenceable(16) %3, ptr noundef nonnull readonly align 16 dereferenceable(16) %5, ptr noundef nonnull readonly align 16 dereferenceable(16) %6, i32 poison, i32 poison)
  br label %_ZNK14b3QuantizedBvh29reportBoxCastOverlappingNodexEP21b3NodeOverlapCallbackRK9b3Vector3S4_S4_S4_.exit

_ZNK14b3QuantizedBvh29reportBoxCastOverlappingNodexEP21b3NodeOverlapCallbackRK9b3Vector3S4_S4_S4_.exit: ; preds = %10, %13
  call void @llvm.lifetime.end.p0(i64 16, ptr nonnull %6) #21
  call void @llvm.lifetime.end.p0(i64 16, ptr nonnull %5) #21
  ret void
}